; Function Attrs: nounwind uwtable
define internal void @dtgtk_button_class_intern_init(ptr noundef %0) #0 {
  %2 = tail call ptr @g_type_class_peek_parent(ptr noundef %0) #9
  store ptr %2, ptr @dtgtk_button_parent_class, align 8, !tbaa !33
  %3 = load i32, ptr @GtkDarktableButton_private_offset, align 4, !tbaa !34
  %.not = icmp eq i32 %3, 0
  br i1 %.not, label %5, label %4

4:                                                ; preds = %1
  tail call void @g_type_class_adjust_private_offset(ptr noundef %0, ptr noundef nonnull @GtkDarktableButton_private_offset) #9
  br label %5

5:                                                ; preds = %4, %1
  %6 = getelementptr inbounds nuw i8, ptr %0, i64 288
  store ptr @_button_draw, ptr %6, align 8, !tbaa !35
  ret void
}